; Function Attrs: nounwind uwtable
define internal fastcc void @copy_bits(ptr noundef nonnull captures(none) %0, ptr noundef readonly captures(none) %1, i32 noundef %2) unnamed_addr #0 {
  %4 = ashr i32 %2, 4
  %5 = and i32 %2, 15
  %6 = icmp sgt i32 %4, 0
  br i1 %6, label %.lr.ph, label %._crit_edge

.lr.ph:                                           ; preds = %3
  %7 = getelementptr inbounds nuw i8, ptr %0, i64 4
  %8 = getelementptr inbounds nuw i8, ptr %0, i64 24
  %9 = getelementptr inbounds nuw i8, ptr %0, i64 16
  %wide.trip.count = zext nneg i32 %4 to i64
  %.pre = load i32, ptr %0, align 8, !tbaa !50
  %.pre21 = load i32, ptr %7, align 4, !tbaa !51
  br label %10

10:                                               ; preds = %.lr.ph, %put_bits.exit
  %11 = phi i32 [ %.pre21, %.lr.ph ], [ %38, %put_bits.exit ]
  %12 = phi i32 [ %.pre, %.lr.ph ], [ %.026.i.i, %put_bits.exit ]
  %indvars.iv = phi i64 [ 0, %.lr.ph ], [ %indvars.iv.next, %put_bits.exit ]
  %13 = shl nuw nsw i64 %indvars.iv, 1
  %14 = getelementptr inbounds nuw i8, ptr %1, i64 %13
  %15 = load i16, ptr %14, align 1, !tbaa !42
  %16 = tail call i16 @llvm.bswap.i16(i16 %15)
  %17 = zext i16 %16 to i32
  %18 = icmp sgt i32 %11, 16
  br i1 %18, label %19, label %22

19:                                               ; preds = %10
  %20 = shl i32 %12, 16
  %21 = or disjoint i32 %20, %17
  br label %put_bits.exit

22:                                               ; preds = %10
  %23 = load ptr, ptr %8, align 8, !tbaa !46
  %24 = load ptr, ptr %9, align 8, !tbaa !47
  %25 = ptrtoint ptr %23 to i64
  %26 = ptrtoint ptr %24 to i64
  %27 = sub i64 %25, %26
  %28 = icmp ugt i64 %27, 3
  br i1 %28, label %29, label %37

29:                                               ; preds = %22
  %30 = shl i32 %12, %11
  %31 = sub nsw i32 16, %11
  %32 = lshr i32 %17, %31
  %33 = or i32 %32, %30
  %34 = tail call i32 @llvm.bswap.i32(i32 %33)
  store i32 %34, ptr %24, align 1, !tbaa !42
  %35 = load ptr, ptr %9, align 8, !tbaa !47
  %36 = getelementptr inbounds nuw i8, ptr %35, i64 4
  store ptr %36, ptr %9, align 8, !tbaa !47
  br label %put_bits.exit

37:                                               ; preds = %22
  tail call void (ptr, i32, ptr, ...) @av_log(ptr noundef null, i32 noundef 16, ptr noundef nonnull @.str.17) #6
  br label %put_bits.exit

put_bits.exit:                                    ; preds = %29, %37, %19
  %.sink = phi i32 [ -16, %19 ], [ 16, %37 ], [ 16, %29 ]
  %.026.i.i = phi i32 [ %21, %19 ], [ %17, %37 ], [ %17, %29 ]
  %38 = add nsw i32 %11, %.sink
  store i32 %.026.i.i, ptr %0, align 8, !tbaa !50
  store i32 %38, ptr %7, align 4, !tbaa !51
  %indvars.iv.next = add nuw nsw i64 %indvars.iv, 1
  %exitcond.not = icmp eq i64 %indvars.iv.next, %wide.trip.count
  br i1 %exitcond.not, label %._crit_edge, label %10, !llvm.loop !64

._crit_edge:                                      ; preds = %put_bits.exit, %3
  %.not = icmp eq i32 %5, 0
  br i1 %.not, label %76, label %39

39:                                               ; preds = %._crit_edge
  %40 = shl nsw i32 %4, 1
  %41 = sext i32 %40 to i64
  %42 = getelementptr inbounds i8, ptr %1, i64 %41
  %43 = load i16, ptr %42, align 1, !tbaa !42
  %44 = tail call i16 @llvm.bswap.i16(i16 %43)
  %45 = zext i16 %44 to i32
  %46 = sub nuw nsw i32 16, %5
  %47 = lshr i32 %45, %46
  %48 = load i32, ptr %0, align 8, !tbaa !50
  %49 = getelementptr inbounds nuw i8, ptr %0, i64 4
  %50 = load i32, ptr %49, align 4, !tbaa !51
  %51 = icmp slt i32 %5, %50
  br i1 %51, label %52, label %56

52:                                               ; preds = %39
  %53 = shl i32 %48, %5
  %54 = or i32 %47, %53
  %55 = sub nsw i32 %50, %5
  br label %put_bits.exit18

56:                                               ; preds = %39
  %57 = getelementptr inbounds nuw i8, ptr %0, i64 24
  %58 = load ptr, ptr %57, align 8, !tbaa !46
  %59 = getelementptr inbounds nuw i8, ptr %0, i64 16
  %60 = load ptr, ptr %59, align 8, !tbaa !47
  %61 = ptrtoint ptr %58 to i64
  %62 = ptrtoint ptr %60 to i64
  %63 = sub i64 %61, %62
  %64 = icmp ugt i64 %63, 3
  br i1 %64, label %65, label %73

65:                                               ; preds = %56
  %66 = shl i32 %48, %50
  %67 = sub nsw i32 %5, %50
  %68 = lshr i32 %47, %67
  %69 = or i32 %68, %66
  %70 = tail call i32 @llvm.bswap.i32(i32 %69)
  store i32 %70, ptr %60, align 1, !tbaa !42
  %71 = load ptr, ptr %59, align 8, !tbaa !47
  %72 = getelementptr inbounds nuw i8, ptr %71, i64 4
  store ptr %72, ptr %59, align 8, !tbaa !47
  br label %74

73:                                               ; preds = %56
  tail call void (ptr, i32, ptr, ...) @av_log(ptr noundef null, i32 noundef 16, ptr noundef nonnull @.str.17) #6
  br label %74

74:                                               ; preds = %73, %65
  %reass.sub = sub i32 %50, %5
  %75 = add i32 %reass.sub, 32
  br label %put_bits.exit18

put_bits.exit18:                                  ; preds = %52, %74
  %.026.i.i16 = phi i32 [ %54, %52 ], [ %47, %74 ]
  %.0.i.i17 = phi i32 [ %55, %52 ], [ %75, %74 ]
  store i32 %.026.i.i16, ptr %0, align 8, !tbaa !50
  store i32 %.0.i.i17, ptr %49, align 4, !tbaa !51
  br label %76

76:                                               ; preds = %put_bits.exit18, %._crit_edge
  ret void
}